target datalayout = "e-m:e-p270:32:32-p271:32:32-p272:64:64-i64:64-i128:128-f80:128-n8:16:32:64-S128"
target triple = "x86_64-pc-linux-gnu"

%struct.security_debug_ex = type { ptr, i32, ptr }

@bio_err = external global ptr, align 8
@ssl_ctx_security_debug.sdb = internal global %struct.security_debug_ex zeroinitializer, align 8

; Function Attrs: nounwind uwtable
define void @ssl_ctx_security_debug(ptr noundef %0, i32 noundef %1) #0 {
  %3 = alloca ptr, align 8
  %4 = alloca i32, align 4
  store ptr %0, ptr %3, align 8, !tbaa !19
  store i32 %1, ptr %4, align 4, !tbaa !3
  %5 = load ptr, ptr @bio_err, align 8, !tbaa !14
  store ptr %5, ptr @ssl_ctx_security_debug.sdb, align 8, !tbaa !105
  %6 = load i32, ptr %4, align 4, !tbaa !3
  store i32 %6, ptr getelementptr inbounds nuw (%struct.security_debug_ex, ptr @ssl_ctx_security_debug.sdb, i32 0, i32 1), align 8, !tbaa !107
  %7 = load ptr, ptr %3, align 8, !tbaa !19
  %8 = call ptr @SSL_CTX_get_security_callback(ptr noundef %7)
  store ptr %8, ptr getelementptr inbounds nuw (%struct.security_debug_ex, ptr @ssl_ctx_security_debug.sdb, i32 0, i32 2), align 8, !tbaa !108
  %9 = load ptr, ptr %3, align 8, !tbaa !19
  call void @SSL_CTX_set_security_callback(ptr noundef %9, ptr noundef @security_callback_debug)
  %10 = load ptr, ptr %3, align 8, !tbaa !19
  call void @SSL_CTX_set0_security_ex_data(ptr noundef %10, ptr noundef @ssl_ctx_security_debug.sdb)
  ret void
}