; Function Attrs: nounwind uwtable
define void @ssl_ctx_security_debug(ptr noundef %0, i32 noundef %1) local_unnamed_addr #0 {
  %3 = load ptr, ptr @bio_err, align 8, !tbaa !8
  store ptr %3, ptr @ssl_ctx_security_debug.sdb, align 8, !tbaa !71
  store i32 %1, ptr getelementptr inbounds nuw (i8, ptr @ssl_ctx_security_debug.sdb, i64 8), align 8, !tbaa !73
  %4 = tail call ptr @SSL_CTX_get_security_callback(ptr noundef %0) #6
  store ptr %4, ptr getelementptr inbounds nuw (i8, ptr @ssl_ctx_security_debug.sdb, i64 16), align 8, !tbaa !74
  tail call void @SSL_CTX_set_security_callback(ptr noundef %0, ptr noundef nonnull @security_callback_debug) #6
  tail call void @SSL_CTX_set0_security_ex_data(ptr noundef %0, ptr noundef nonnull @ssl_ctx_security_debug.sdb) #6
  ret void
}